; Function Attrs: nounwind uwtable
define ptr @l_lexOrd___at_Lean_Elab_InfoTree_hoverableInfoAt_x3f___spec__8___lambda__2___boxed(ptr noundef %0) #0 {
  %2 = getelementptr inbounds nuw i8, ptr %0, i64 16
  %3 = load ptr, ptr %2, align 8, !tbaa !9
  %4 = ptrtoint ptr %3 to i64
  %5 = and i64 %4, 1
  %.not.i3 = icmp eq i64 %5, 0
  br i1 %.not.i3, label %6, label %l_lexOrd___at_Lean_Elab_InfoTree_hoverableInfoAt_x3f___spec__8___lambda__2.exit

6:                                                ; preds = %1
  %.val.i.i = load i32, ptr %3, align 4, !tbaa !4
  %7 = icmp sgt i32 %.val.i.i, 0
  br i1 %7, label %8, label %10, !prof !15

8:                                                ; preds = %6
  %9 = add nuw i32 %.val.i.i, 1
  store i32 %9, ptr %3, align 4, !tbaa !4
  br label %l_lexOrd___at_Lean_Elab_InfoTree_hoverableInfoAt_x3f___spec__8___lambda__2.exit

10:                                               ; preds = %6
  %.not.i.i = icmp eq i32 %.val.i.i, 0
  br i1 %.not.i.i, label %l_lexOrd___at_Lean_Elab_InfoTree_hoverableInfoAt_x3f___spec__8___lambda__2.exit, label %11

11:                                               ; preds = %10
  tail call void @lean_inc_ref_cold(ptr noundef nonnull %3) #7
  br label %l_lexOrd___at_Lean_Elab_InfoTree_hoverableInfoAt_x3f___spec__8___lambda__2.exit

l_lexOrd___at_Lean_Elab_InfoTree_hoverableInfoAt_x3f___spec__8___lambda__2.exit: ; preds = %1, %8, %10, %11
  %12 = ptrtoint ptr %0 to i64
  %13 = and i64 %12, 1
  %.not = icmp eq i64 %13, 0
  br i1 %.not, label %14, label %lean_dec.exit

14:                                               ; preds = %l_lexOrd___at_Lean_Elab_InfoTree_hoverableInfoAt_x3f___spec__8___lambda__2.exit
  %15 = load i32, ptr %0, align 4, !tbaa !4
  %16 = icmp sgt i32 %15, 1
  br i1 %16, label %17, label %19, !prof !15

17:                                               ; preds = %14
  %18 = add nsw i32 %15, -1
  store i32 %18, ptr %0, align 4, !tbaa !4
  br label %lean_dec.exit

19:                                               ; preds = %14
  %.not.i = icmp eq i32 %15, 0
  br i1 %.not.i, label %lean_dec.exit, label %20

20:                                               ; preds = %19
  tail call void @lean_dec_ref_cold(ptr noundef nonnull %0) #7
  br label %lean_dec.exit

lean_dec.exit:                                    ; preds = %20, %19, %17, %l_lexOrd___at_Lean_Elab_InfoTree_hoverableInfoAt_x3f___spec__8___lambda__2.exit
  ret ptr %3
}